; Function Attrs: mustprogress uwtable
define noundef zeroext i1 @_ZN32pxrInternal_v0_24__pxrReserved__16UsdGeomBBoxCache31ComputePointInstanceWorldBoundsERKNS_21UsdGeomPointInstancerEPKlmPNS_8GfBBox3dE(ptr noundef nonnull align 8 dereferenceable(522) %0, ptr noundef nonnull align 8 dereferenceable(24) %1, ptr noundef %2, i64 noundef %3, ptr noundef %4) local_unnamed_addr #0 align 2 personality ptr @__gxx_personality_v0 {
  %6 = alloca %"class.pxrInternal_v0_24__pxrReserved__::GfMatrix4d", align 8
  %7 = alloca %"class.pxrInternal_v0_24__pxrReserved__::UsdPrim", align 8
  %8 = getelementptr inbounds nuw i8, ptr %0, i64 400
  %9 = getelementptr inbounds nuw i8, ptr %1, i64 8
  %10 = getelementptr inbounds nuw i8, ptr %1, i64 16
  call void @_ZN32pxrInternal_v0_24__pxrReserved__9UsdObjectC2ERKNS_18Usd_PrimDataHandleERKNS_7SdfPathE(ptr noundef nonnull align 8 dereferenceable(32) %7, ptr noundef nonnull align 8 dereferenceable(8) %9, ptr noundef nonnull align 4 dereferenceable(8) %10)
  invoke void @_ZN32pxrInternal_v0_24__pxrReserved__17UsdGeomXformCache24GetLocalToWorldTransformERKNS_7UsdPrimE(ptr dead_on_unwind nonnull writable sret(%"class.pxrInternal_v0_24__pxrReserved__::GfMatrix4d") align 8 %6, ptr noundef nonnull align 8 dereferenceable(64) %8, ptr noundef nonnull align 8 dereferenceable(32) %7)
          to label %11 unwind label %47

11:                                               ; preds = %5
  %12 = invoke noundef zeroext i1 @_ZN32pxrInternal_v0_24__pxrReserved__16UsdGeomBBoxCache33_ComputePointInstanceBoundsHelperERKNS_21UsdGeomPointInstancerEPKlmRKNS_10GfMatrix4dEPNS_8GfBBox3dE(ptr noundef nonnull align 8 dereferenceable(522) %0, ptr noundef nonnull align 8 dereferenceable(24) %1, ptr noundef %2, i64 noundef %3, ptr noundef nonnull align 8 dereferenceable(128) %6, ptr noundef %4)
          to label %13 unwind label %47

13:                                               ; preds = %11
  %14 = getelementptr inbounds nuw i8, ptr %7, i64 24
  %15 = load ptr, ptr %14, align 8
  %16 = ptrtoint ptr %15 to i64
  %17 = and i64 %16, 7
  %.not.i.i.i.i = icmp eq i64 %17, 0
  br i1 %.not.i.i.i.i, label %_ZN32pxrInternal_v0_24__pxrReserved__7TfTokenD2Ev.exit.i.i, label %18

18:                                               ; preds = %13
  %19 = and i64 %16, -8
  %20 = inttoptr i64 %19 to ptr
  %21 = atomicrmw sub ptr %20, i32 2 release, align 4
  br label %_ZN32pxrInternal_v0_24__pxrReserved__7TfTokenD2Ev.exit.i.i

_ZN32pxrInternal_v0_24__pxrReserved__7TfTokenD2Ev.exit.i.i: ; preds = %18, %13
  %22 = getelementptr inbounds nuw i8, ptr %7, i64 16
  %23 = load i32, ptr %22, align 8
  %.not.i.i1.i.i = icmp eq i32 %23, 0
  br i1 %.not.i.i1.i.i, label %_ZN32pxrInternal_v0_24__pxrReserved__7SdfPathD2Ev.exit.i.i, label %24

24:                                               ; preds = %_ZN32pxrInternal_v0_24__pxrReserved__7TfTokenD2Ev.exit.i.i
  %25 = and i32 %23, 255
  %26 = lshr i32 %23, 8
  %27 = zext nneg i32 %25 to i64
  %28 = getelementptr inbounds nuw [257 x ptr], ptr @_ZN32pxrInternal_v0_24__pxrReserved__8Sdf_PoolINS_15Sdf_PathPrimTagELj24ELj8ELj16384EE13_regionStartsE, i64 0, i64 %27
  %29 = load ptr, ptr %28, align 8
  %30 = mul nuw nsw i32 %26, 24
  %31 = zext nneg i32 %30 to i64
  %32 = getelementptr inbounds nuw i8, ptr %29, i64 %31
  %33 = getelementptr inbounds nuw i8, ptr %32, i64 8
  %34 = atomicrmw sub ptr %33, i32 1 seq_cst, align 4
  %35 = and i32 %34, 2147483647
  %36 = icmp eq i32 %35, 1
  br i1 %36, label %37, label %_ZN32pxrInternal_v0_24__pxrReserved__7SdfPathD2Ev.exit.i.i

37:                                               ; preds = %24
  invoke void @_ZNK32pxrInternal_v0_24__pxrReserved__12Sdf_PathNode8_DestroyEv(ptr noundef nonnull align 8 dereferenceable(16) %32)
          to label %_ZN32pxrInternal_v0_24__pxrReserved__7SdfPathD2Ev.exit.i.i unwind label %38

38:                                               ; preds = %37
  %39 = landingpad { ptr, i32 }
          catch ptr null
  %40 = extractvalue { ptr, i32 } %39, 0
  call void @__clang_call_terminate(ptr %40) #26
  unreachable

_ZN32pxrInternal_v0_24__pxrReserved__7SdfPathD2Ev.exit.i.i: ; preds = %37, %24, %_ZN32pxrInternal_v0_24__pxrReserved__7TfTokenD2Ev.exit.i.i
  %41 = getelementptr inbounds nuw i8, ptr %7, i64 8
  %42 = load ptr, ptr %41, align 8
  %.not.i.i.i.i.i = icmp eq ptr %42, null
  br i1 %.not.i.i.i.i.i, label %_ZN32pxrInternal_v0_24__pxrReserved__7UsdPrimD2Ev.exit, label %43

43:                                               ; preds = %_ZN32pxrInternal_v0_24__pxrReserved__7SdfPathD2Ev.exit.i.i
  %44 = getelementptr inbounds nuw i8, ptr %42, i64 48
  %45 = atomicrmw sub ptr %44, i64 1 release, align 8
  %.not1.i.i.i.i.i = icmp eq i64 %45, 1
  br i1 %.not1.i.i.i.i.i, label %46, label %_ZN32pxrInternal_v0_24__pxrReserved__7UsdPrimD2Ev.exit

46:                                               ; preds = %43
  call void @_ZN32pxrInternal_v0_24__pxrReserved__12Usd_PrimDataD1Ev(ptr noundef nonnull align 8 dereferenceable(64) %42) #15
  call void @_ZdlPvm(ptr noundef nonnull %42, i64 noundef 64) #25
  br label %_ZN32pxrInternal_v0_24__pxrReserved__7UsdPrimD2Ev.exit

_ZN32pxrInternal_v0_24__pxrReserved__7UsdPrimD2Ev.exit: ; preds = %_ZN32pxrInternal_v0_24__pxrReserved__7SdfPathD2Ev.exit.i.i, %43, %46
  ret i1 %12

47:                                               ; preds = %11, %5
  %48 = landingpad { ptr, i32 }
          cleanup
  call void @_ZN32pxrInternal_v0_24__pxrReserved__7UsdPrimD2Ev(ptr noundef nonnull align 8 dereferenceable(32) %7) #15
  resume { ptr, i32 } %48
}